target datalayout = "e-m:e-p270:32:32-p271:32:32-p272:64:64-i64:64-i128:128-f80:128-n8:16:32:64-S128"
target triple = "x86_64-pc-linux-gnu"

@stderr = external global ptr, align 8
@.str.14 = private unnamed_addr constant [58 x i8] c"integer overflow when trying to allocate %zu * %zu bytes\0A\00", align 1
@.str.15 = private unnamed_addr constant [49 x i8] c"out of memory when trying to allocate %zu bytes\0A\00", align 1

; Function Attrs: inlinehint nounwind uwtable
define internal ptr @gv_calloc(i64 noundef %0, i64 noundef %1) #4 {
  %3 = alloca i64, align 8
  %4 = alloca i64, align 8
  %5 = alloca ptr, align 8
  store i64 %0, ptr %3, align 8, !tbaa !48
  store i64 %1, ptr %4, align 8, !tbaa !48
  %6 = load i64, ptr %3, align 8, !tbaa !48
  %7 = icmp ugt i64 %6, 0
  br i1 %7, label %8, label %18

8:                                                ; preds = %2
  %9 = load i64, ptr %3, align 8, !tbaa !48
  %10 = udiv i64 -1, %9
  %11 = load i64, ptr %4, align 8, !tbaa !48
  %12 = icmp ult i64 %10, %11
  br i1 %12, label %13, label %18

13:                                               ; preds = %8
  %14 = load ptr, ptr @stderr, align 8, !tbaa !59
  %15 = load i64, ptr %3, align 8, !tbaa !48
  %16 = load i64, ptr %4, align 8, !tbaa !48
  %17 = call i32 (ptr, ptr, ...) @fprintf(ptr noundef %14, ptr noundef @.str.14, i64 noundef %15, i64 noundef %16) #10
  call void @graphviz_exit(i32 noundef 1) #11
  unreachable

18:                                               ; preds = %8, %2
  call void @llvm.lifetime.start.p0(i64 8, ptr %5) #10
  %19 = load i64, ptr %3, align 8, !tbaa !48
  %20 = load i64, ptr %4, align 8, !tbaa !48
  %21 = call noalias ptr @calloc(i64 noundef %19, i64 noundef %20) #12
  store ptr %21, ptr %5, align 8, !tbaa !42
  %22 = load i64, ptr %3, align 8, !tbaa !48
  %23 = icmp ugt i64 %22, 0
  br i1 %23, label %24, label %36

24:                                               ; preds = %18
  %25 = load i64, ptr %4, align 8, !tbaa !48
  %26 = icmp ugt i64 %25, 0
  br i1 %26, label %27, label %36

27:                                               ; preds = %24
  %28 = load ptr, ptr %5, align 8, !tbaa !42
  %29 = icmp eq ptr %28, null
  br i1 %29, label %30, label %36

30:                                               ; preds = %27
  %31 = load ptr, ptr @stderr, align 8, !tbaa !59
  %32 = load i64, ptr %3, align 8, !tbaa !48
  %33 = load i64, ptr %4, align 8, !tbaa !48
  %34 = mul i64 %32, %33
  %35 = call i32 (ptr, ptr, ...) @fprintf(ptr noundef %31, ptr noundef @.str.15, i64 noundef %34) #10
  call void @graphviz_exit(i32 noundef 1) #11
  unreachable

36:                                               ; preds = %27, %24, %18
  %37 = load ptr, ptr %5, align 8, !tbaa !42
  call void @llvm.lifetime.end.p0(i64 8, ptr %5) #10
  ret ptr %37
}

; Function Attrs: nounwind uwtable
define ptr @compute_apsp_packed(ptr noundef %0, i32 noundef %1) #0 {
  %3 = alloca ptr, align 8
  %4 = alloca i32, align 4
  %5 = alloca i32, align 4
  %6 = alloca i32, align 4
  %7 = alloca i32, align 4
  %8 = alloca ptr, align 8
  %9 = alloca ptr, align 8
  store ptr %0, ptr %3, align 8, !tbaa !42
  store i32 %1, ptr %4, align 4, !tbaa !3
  call void @llvm.lifetime.start.p0(i64 4, ptr %5) #10
  call void @llvm.lifetime.start.p0(i64 4, ptr %6) #10
  call void @llvm.lifetime.start.p0(i64 4, ptr %7) #10
  call void @llvm.lifetime.start.p0(i64 8, ptr %8) #10
  %10 = load i32, ptr %4, align 4, !tbaa !3
  %11 = load i32, ptr %4, align 4, !tbaa !3
  %12 = add nsw i32 %11, 1
  %13 = mul nsw i32 %10, %12
  %14 = sdiv i32 %13, 2
  %15 = sext i32 %14 to i64
  %16 = call ptr @gv_calloc(i64 noundef %15, i64 noundef 4)
  store ptr %16, ptr %8, align 8, !tbaa !43
  call void @llvm.lifetime.start.p0(i64 8, ptr %9) #10
  %17 = load i32, ptr %4, align 4, !tbaa !3
  %18 = sext i32 %17 to i64
  %19 = call ptr @gv_calloc(i64 noundef %18, i64 noundef 4)
  store ptr %19, ptr %9, align 8, !tbaa !66
  store i32 0, ptr %7, align 4, !tbaa !3
  store i32 0, ptr %5, align 4, !tbaa !3
  br label %20

20:                                               ; preds = %50, %2
  %21 = load i32, ptr %5, align 4, !tbaa !3
  %22 = load i32, ptr %4, align 4, !tbaa !3
  %23 = icmp slt i32 %21, %22
  br i1 %23, label %24, label %53

24:                                               ; preds = %20
  %25 = load i32, ptr %5, align 4, !tbaa !3
  %26 = load ptr, ptr %3, align 8, !tbaa !42
  %27 = load i32, ptr %4, align 4, !tbaa !3
  %28 = load ptr, ptr %9, align 8, !tbaa !66
  call void @bfs(i32 noundef %25, ptr noundef %26, i32 noundef %27, ptr noundef %28)
  %29 = load i32, ptr %5, align 4, !tbaa !3
  store i32 %29, ptr %6, align 4, !tbaa !3
  br label %30

30:                                               ; preds = %46, %24
  %31 = load i32, ptr %6, align 4, !tbaa !3
  %32 = load i32, ptr %4, align 4, !tbaa !3
  %33 = icmp slt i32 %31, %32
  br i1 %33, label %34, label %49

34:                                               ; preds = %30
  %35 = load ptr, ptr %9, align 8, !tbaa !66
  %36 = load i32, ptr %6, align 4, !tbaa !3
  %37 = sext i32 %36 to i64
  %38 = getelementptr inbounds i32, ptr %35, i64 %37
  %39 = load i32, ptr %38, align 4, !tbaa !3
  %40 = sitofp i32 %39 to float
  %41 = load ptr, ptr %8, align 8, !tbaa !43
  %42 = load i32, ptr %7, align 4, !tbaa !3
  %43 = add nsw i32 %42, 1
  store i32 %43, ptr %7, align 4, !tbaa !3
  %44 = sext i32 %42 to i64
  %45 = getelementptr inbounds float, ptr %41, i64 %44
  store float %40, ptr %45, align 4, !tbaa !51
  br label %46

46:                                               ; preds = %34
  %47 = load i32, ptr %6, align 4, !tbaa !3
  %48 = add nsw i32 %47, 1
  store i32 %48, ptr %6, align 4, !tbaa !3
  br label %30, !llvm.loop !67

49:                                               ; preds = %30
  br label %50

50:                                               ; preds = %49
  %51 = load i32, ptr %5, align 4, !tbaa !3
  %52 = add nsw i32 %51, 1
  store i32 %52, ptr %5, align 4, !tbaa !3
  br label %20, !llvm.loop !68

53:                                               ; preds = %20
  %54 = load ptr, ptr %9, align 8, !tbaa !66
  call void @free(ptr noundef %54) #10
  %55 = load ptr, ptr %8, align 8, !tbaa !43
  call void @llvm.lifetime.end.p0(i64 8, ptr %9) #10
  call void @llvm.lifetime.end.p0(i64 8, ptr %8) #10
  call void @llvm.lifetime.end.p0(i64 4, ptr %7) #10
  call void @llvm.lifetime.end.p0(i64 4, ptr %6) #10
  call void @llvm.lifetime.end.p0(i64 4, ptr %5) #10
  ret ptr %55
}