; Function Attrs: nounwind uwtable
define noalias noundef ptr @compute_apsp_packed(ptr noundef %0, i32 noundef %1) local_unnamed_addr #0 {
  %3 = add nsw i32 %1, 1
  %4 = mul nsw i32 %3, %1
  %5 = sdiv i32 %4, 2
  %6 = sext i32 %5 to i64
  %.off = add i32 %4, 1
  %.not.i = icmp ult i32 %.off, 3
  br i1 %.not.i, label %.thread.i, label %8

.thread.i:                                        ; preds = %2
  %7 = tail call noalias ptr @calloc(i64 noundef 0, i64 noundef 4) #17
  br label %gv_calloc.exit

8:                                                ; preds = %2
  %mul.ov.i = icmp slt i32 %4, -1
  br i1 %mul.ov.i, label %9, label %12

9:                                                ; preds = %8
  %10 = load ptr, ptr @stderr, align 8, !tbaa !37
  %11 = tail call i32 (ptr, ptr, ...) @fprintf(ptr noundef %10, ptr noundef nonnull @.str.14, i64 noundef %6, i64 noundef 4) #18
  tail call fastcc void @graphviz_exit() #19
  unreachable

12:                                               ; preds = %8
  %13 = tail call noalias ptr @calloc(i64 noundef %6, i64 noundef 4) #17
  %14 = icmp eq ptr %13, null
  br i1 %14, label %15, label %gv_calloc.exit

15:                                               ; preds = %12
  %16 = load ptr, ptr @stderr, align 8, !tbaa !37
  %17 = shl nuw nsw i64 %6, 2
  %18 = tail call i32 (ptr, ptr, ...) @fprintf(ptr noundef %16, ptr noundef nonnull @.str.15, i64 noundef %17) #18
  tail call fastcc void @graphviz_exit() #19
  unreachable

gv_calloc.exit:                                   ; preds = %.thread.i, %12
  %19 = phi ptr [ %7, %.thread.i ], [ %13, %12 ]
  %20 = sext i32 %1 to i64
  %.not.i22 = icmp eq i32 %1, 0
  br i1 %.not.i22, label %gv_calloc.exit26, label %21

21:                                               ; preds = %gv_calloc.exit
  %mul.ov.i24 = icmp slt i32 %1, 0
  br i1 %mul.ov.i24, label %22, label %25

22:                                               ; preds = %21
  %23 = load ptr, ptr @stderr, align 8, !tbaa !37
  %24 = tail call i32 (ptr, ptr, ...) @fprintf(ptr noundef %23, ptr noundef nonnull @.str.14, i64 noundef %20, i64 noundef 4) #18
  tail call fastcc void @graphviz_exit() #19
  unreachable

25:                                               ; preds = %21
  %26 = tail call noalias ptr @calloc(i64 noundef %20, i64 noundef 4) #17
  %27 = icmp eq ptr %26, null
  br i1 %27, label %28, label %.lr.ph.preheader

28:                                               ; preds = %25
  %29 = load ptr, ptr @stderr, align 8, !tbaa !37
  %30 = shl nuw nsw i64 %20, 2
  %31 = tail call i32 (ptr, ptr, ...) @fprintf(ptr noundef %29, ptr noundef nonnull @.str.15, i64 noundef %30) #18
  tail call fastcc void @graphviz_exit() #19
  unreachable

gv_calloc.exit26:                                 ; preds = %gv_calloc.exit
  %32 = tail call noalias ptr @calloc(i64 noundef 0, i64 noundef 4) #17
  br label %._crit_edge

.lr.ph.preheader:                                 ; preds = %25
  %wide.trip.count = zext nneg i32 %1 to i64
  br label %.lr.ph

.lr.ph:                                           ; preds = %.lr.ph.preheader, %40
  %indvars.iv38 = phi i32 [ %1, %.lr.ph.preheader ], [ %indvars.iv.next39, %40 ]
  %indvars.iv = phi i64 [ 0, %.lr.ph.preheader ], [ %indvars.iv.next, %40 ]
  %.02029 = phi i32 [ 0, %.lr.ph.preheader ], [ %34, %40 ]
  %indvars40 = trunc i64 %indvars.iv to i32
  tail call void @bfs(i32 noundef %indvars40, ptr noundef %0, i32 noundef %1, ptr noundef nonnull %26) #16
  %33 = sext i32 %.02029 to i64
  %34 = add i32 %.02029, %indvars.iv38
  br label %35

35:                                               ; preds = %.lr.ph, %35
  %indvars.iv33 = phi i64 [ %33, %.lr.ph ], [ %indvars.iv.next34, %35 ]
  %indvars.iv31 = phi i64 [ %indvars.iv, %.lr.ph ], [ %indvars.iv.next32, %35 ]
  %36 = getelementptr inbounds nuw i32, ptr %26, i64 %indvars.iv31
  %37 = load i32, ptr %36, align 4, !tbaa !46
  %38 = sitofp i32 %37 to float
  %indvars.iv.next34 = add nsw i64 %indvars.iv33, 1
  %39 = getelementptr inbounds float, ptr %19, i64 %indvars.iv33
  store float %38, ptr %39, align 4, !tbaa !47
  %indvars.iv.next32 = add nuw nsw i64 %indvars.iv31, 1
  %lftr.wideiv = trunc i64 %indvars.iv.next34 to i32
  %exitcond.not = icmp eq i32 %34, %lftr.wideiv
  br i1 %exitcond.not, label %40, label %35, !llvm.loop !58

40:                                               ; preds = %35
  %indvars.iv.next = add nuw nsw i64 %indvars.iv, 1
  %indvars.iv.next39 = add i32 %indvars.iv38, -1
  %exitcond41.not = icmp eq i64 %indvars.iv.next, %wide.trip.count
  br i1 %exitcond41.not, label %._crit_edge, label %.lr.ph, !llvm.loop !59

._crit_edge:                                      ; preds = %40, %gv_calloc.exit26
  %41 = phi ptr [ %32, %gv_calloc.exit26 ], [ %26, %40 ]
  tail call void @free(ptr noundef %41) #16
  ret ptr %19
}